target datalayout = "e-m:e-p270:32:32-p271:32:32-p272:64:64-i64:64-i128:128-f80:128-n8:16:32:64-S128"
target triple = "x86_64-unknown-linux-gnu"

; Function Attrs: mustprogress nounwind uwtable
define linkonce_odr dso_local noundef float @_Z6btFmodff(float noundef %x, float noundef %y) #1 comdat {
entry:
  %x.addr = alloca float, align 4
  %y.addr = alloca float, align 4
  store float %x, ptr %x.addr, align 4
  store float %y, ptr %y.addr, align 4
  %0 = load float, ptr %x.addr, align 4
  %1 = load float, ptr %y.addr, align 4
  %call = call float @fmodf(float noundef %0, float noundef %1) #10
  ret float %call
}

; Function Attrs: mustprogress uwtable
define linkonce_odr dso_local noundef float @_Z16btNormalizeAnglef(float noundef %angleInRadians) #4 comdat {
entry:
  %retval = alloca float, align 4
  %angleInRadians.addr = alloca float, align 4
  store float %angleInRadians, ptr %angleInRadians.addr, align 4
  %0 = load float, ptr %angleInRadians.addr, align 4
  %call = call noundef float @_Z6btFmodff(float noundef %0, float noundef 0x401921FB60000000)
  store float %call, ptr %angleInRadians.addr, align 4
  %1 = load float, ptr %angleInRadians.addr, align 4
  %cmp = fcmp olt float %1, 0xC00921FB60000000
  br i1 %cmp, label %if.then, label %if.else

if.then:                                          ; preds = %entry
  %2 = load float, ptr %angleInRadians.addr, align 4
  %add = fadd float %2, 0x401921FB60000000
  store float %add, ptr %retval, align 4
  br label %return

if.else:                                          ; preds = %entry
  %3 = load float, ptr %angleInRadians.addr, align 4
  %cmp1 = fcmp ogt float %3, 0x400921FB60000000
  br i1 %cmp1, label %if.then2, label %if.else3

if.then2:                                         ; preds = %if.else
  %4 = load float, ptr %angleInRadians.addr, align 4
  %sub = fsub float %4, 0x401921FB60000000
  store float %sub, ptr %retval, align 4
  br label %return

if.else3:                                         ; preds = %if.else
  %5 = load float, ptr %angleInRadians.addr, align 4
  store float %5, ptr %retval, align 4
  br label %return

return:                                           ; preds = %if.else3, %if.then2, %if.then
  %6 = load float, ptr %retval, align 4
  ret float %6
}

; Function Attrs: mustprogress nounwind uwtable
define internal noundef float @_ZL24btNormalizeAnglePositivef(float noundef %angle) #1 {
entry:
  %angle.addr = alloca float, align 4
  store float %angle, ptr %angle.addr, align 4
  %0 = load float, ptr %angle.addr, align 4
  %call = call noundef float @_Z6btFmodff(float noundef %0, float noundef 0x401921FB60000000)
  %add = fadd float %call, 0x401921FB60000000
  %call1 = call noundef float @_Z6btFmodff(float noundef %add, float noundef 0x401921FB60000000)
  ret float %call1
}

; Function Attrs: mustprogress nounwind uwtable
define linkonce_odr dso_local noundef float @_Z6btFabsf(float noundef %x) #1 comdat {
entry:
  %x.addr = alloca float, align 4
  store float %x, ptr %x.addr, align 4
  %0 = load float, ptr %x.addr, align 4
  %1 = call float @llvm.fabs.f32(float %0)
  ret float %1
}

; Function Attrs: mustprogress uwtable
define internal noundef float @_ZL25btShortestAngularDistanceff(float noundef %accAngle, float noundef %curAngle) #4 {
entry:
  %accAngle.addr = alloca float, align 4
  %curAngle.addr = alloca float, align 4
  %result = alloca float, align 4
  store float %accAngle, ptr %accAngle.addr, align 4
  store float %curAngle, ptr %curAngle.addr, align 4
  %0 = load float, ptr %curAngle.addr, align 4
  %call = call noundef float @_ZL24btNormalizeAnglePositivef(float noundef %0)
  %1 = load float, ptr %accAngle.addr, align 4
  %call1 = call noundef float @_ZL24btNormalizeAnglePositivef(float noundef %1)
  %sub = fsub float %call, %call1
  %call2 = call noundef float @_ZL24btNormalizeAnglePositivef(float noundef %sub)
  %call3 = call noundef float @_Z16btNormalizeAnglef(float noundef %call2)
  store float %call3, ptr %result, align 4
  %2 = load float, ptr %result, align 4
  ret float %2
}

; Function Attrs: mustprogress uwtable
define internal noundef float @_ZL21btShortestAngleUpdateff(float noundef %accAngle, float noundef %curAngle) #4 {
entry:
  %retval = alloca float, align 4
  %accAngle.addr = alloca float, align 4
  %curAngle.addr = alloca float, align 4
  %tol = alloca float, align 4
  %result = alloca float, align 4
  store float %accAngle, ptr %accAngle.addr, align 4
  store float %curAngle, ptr %curAngle.addr, align 4
  store float 0x3FD3333340000000, ptr %tol, align 4
  %0 = load float, ptr %accAngle.addr, align 4
  %1 = load float, ptr %curAngle.addr, align 4
  %call = call noundef float @_ZL25btShortestAngularDistanceff(float noundef %0, float noundef %1)
  store float %call, ptr %result, align 4
  %2 = load float, ptr %result, align 4
  %call1 = call noundef float @_Z6btFabsf(float noundef %2)
  %3 = load float, ptr %tol, align 4
  %cmp = fcmp ogt float %call1, %3
  br i1 %cmp, label %if.then, label %if.else

if.then:                                          ; preds = %entry
  %4 = load float, ptr %curAngle.addr, align 4
  store float %4, ptr %retval, align 4
  br label %return

if.else:                                          ; preds = %entry
  %5 = load float, ptr %accAngle.addr, align 4
  %6 = load float, ptr %result, align 4
  %add = fadd float %5, %6
  store float %add, ptr %retval, align 4
  br label %return

return:                                           ; preds = %if.else, %if.then
  %7 = load float, ptr %retval, align 4
  ret float %7
}