; Function Attrs: mustprogress nofree nounwind willreturn memory(write) uwtable
define internal fastcc noundef float @_ZL21btShortestAngleUpdateff(float noundef %accAngle, float noundef %curAngle) unnamed_addr #6 {
entry:
  %call.i.i.i = tail call noundef float @fmodf(float noundef %curAngle, float noundef 0x401921FB60000000) #19
  %add.i.i = fadd float %call.i.i.i, 0x401921FB60000000
  %call.i1.i.i = tail call noundef float @fmodf(float noundef %add.i.i, float noundef 0x401921FB60000000) #19
  %call.i.i1.i = tail call noundef float @fmodf(float noundef %accAngle, float noundef 0x401921FB60000000) #19
  %add.i2.i = fadd float %call.i.i1.i, 0x401921FB60000000
  %call.i1.i3.i = tail call noundef float @fmodf(float noundef %add.i2.i, float noundef 0x401921FB60000000) #19
  %sub.i = fsub float %call.i1.i.i, %call.i1.i3.i
  %call.i.i4.i = tail call noundef float @fmodf(float noundef %sub.i, float noundef 0x401921FB60000000) #19
  %add.i5.i = fadd float %call.i.i4.i, 0x401921FB60000000
  %call.i1.i6.i = tail call noundef float @fmodf(float noundef %add.i5.i, float noundef 0x401921FB60000000) #19
  %call.i.i7.i = tail call noundef float @fmodf(float noundef %call.i1.i6.i, float noundef 0x401921FB60000000) #19
  %cmp.i.i = fcmp olt float %call.i.i7.i, 0xC00921FB60000000
  br i1 %cmp.i.i, label %if.then.i.i, label %if.else.i.i

if.then.i.i:                                      ; preds = %entry
  %add.i8.i = fadd float %call.i.i7.i, 0x401921FB60000000
  br label %_ZL25btShortestAngularDistanceff.exit

if.else.i.i:                                      ; preds = %entry
  %cmp1.i.i = fcmp ogt float %call.i.i7.i, 0x400921FB60000000
  br i1 %cmp1.i.i, label %if.then2.i.i, label %_ZL25btShortestAngularDistanceff.exit

if.then2.i.i:                                     ; preds = %if.else.i.i
  %sub.i.i = fadd float %call.i.i7.i, 0xC01921FB60000000
  br label %_ZL25btShortestAngularDistanceff.exit

_ZL25btShortestAngularDistanceff.exit:            ; preds = %if.then.i.i, %if.else.i.i, %if.then2.i.i
  %retval.0.i.i = phi float [ %add.i8.i, %if.then.i.i ], [ %sub.i.i, %if.then2.i.i ], [ %call.i.i7.i, %if.else.i.i ]
  %0 = tail call noundef float @llvm.fabs.f32(float %retval.0.i.i)
  %cmp = fcmp ogt float %0, 0x3FD3333340000000
  %add = fadd float %retval.0.i.i, %accAngle
  %retval.0 = select i1 %cmp, float %curAngle, float %add
  ret float %retval.0
}